target datalayout = "e-m:e-p270:32:32-p271:32:32-p272:64:64-i64:64-i128:128-f80:128-n8:16:32:64-S128"
target triple = "x86_64-pc-linux-gnu"

%struct.ident_t = type { i32, i32, i32, i32, ptr }
%"class.ncnn::Mat" = type { ptr, ptr, i64, i32, ptr, i32, i32, i32, i32, i32, i64 }
%"class.ncnn::Option" = type { i8, i32, ptr, ptr, i32, i8, i8, i8, i8, i8, i8, i8, i8, i8, i8, i8, i8, i8, i8, i8, i8, i8, i8, i8, i8, i32, i8, i8, i8, i8, i8, i8, i8, i8, i8, i8, i8, i8 }

@2 = private unnamed_addr constant %struct.ident_t { i32 0, i32 2, i32 0, i32 22, ptr @0 }, align 8

; Function Attrs: alwaysinline mustprogress nounwind uwtable
define linkonce_odr hidden noundef i64 @_ZNK4ncnn3Mat5totalEv(ptr noundef nonnull align 8 dereferenceable(72) %0) #7 comdat align 2 {
  %2 = alloca ptr, align 8
  store ptr %0, ptr %2, align 8, !tbaa !13
  %3 = load ptr, ptr %2, align 8
  %4 = getelementptr inbounds nuw %"class.ncnn::Mat", ptr %3, i32 0, i32 10
  %5 = load i64, ptr %4, align 8, !tbaa !68
  %6 = getelementptr inbounds nuw %"class.ncnn::Mat", ptr %3, i32 0, i32 9
  %7 = load i32, ptr %6, align 8, !tbaa !26
  %8 = sext i32 %7 to i64
  %9 = mul i64 %5, %8
  ret i64 %9
}

; Function Attrs: inlinehint mustprogress nounwind uwtable
define linkonce_odr noundef nonnull align 4 dereferenceable(4) ptr @_ZSt3maxIiERKT_S2_S2_(ptr noundef nonnull align 4 dereferenceable(4) %0, ptr noundef nonnull align 4 dereferenceable(4) %1) #0 comdat {
  %3 = alloca ptr, align 8
  %4 = alloca ptr, align 8
  %5 = alloca ptr, align 8
  store ptr %0, ptr %4, align 8, !tbaa !46
  store ptr %1, ptr %5, align 8, !tbaa !46
  %6 = load ptr, ptr %4, align 8, !tbaa !46
  %7 = load i32, ptr %6, align 4, !tbaa !23
  %8 = load ptr, ptr %5, align 8, !tbaa !46
  %9 = load i32, ptr %8, align 4, !tbaa !23
  %10 = icmp slt i32 %7, %9
  br i1 %10, label %11, label %13

11:                                               ; preds = %2
  %12 = load ptr, ptr %5, align 8, !tbaa !46
  store ptr %12, ptr %3, align 8
  br label %15

13:                                               ; preds = %2
  %14 = load ptr, ptr %4, align 8, !tbaa !46
  store ptr %14, ptr %3, align 8
  br label %15

15:                                               ; preds = %13, %11
  %16 = load ptr, ptr %3, align 8
  ret ptr %16
}

; Function Attrs: alwaysinline mustprogress uwtable
define linkonce_odr hidden noundef zeroext i1 @_ZNK4ncnn3Mat5emptyEv(ptr noundef nonnull align 8 dereferenceable(72) %0) #4 comdat align 2 {
  %2 = alloca ptr, align 8
  store ptr %0, ptr %2, align 8, !tbaa !13
  %3 = load ptr, ptr %2, align 8
  %4 = getelementptr inbounds nuw %"class.ncnn::Mat", ptr %3, i32 0, i32 0
  %5 = load ptr, ptr %4, align 8, !tbaa !45
  %6 = icmp eq ptr %5, null
  br i1 %6, label %10, label %7

7:                                                ; preds = %1
  %8 = call noundef i64 @_ZNK4ncnn3Mat5totalEv(ptr noundef nonnull align 8 dereferenceable(72) %3)
  %9 = icmp eq i64 %8, 0
  br label %10

10:                                               ; preds = %7, %1
  %11 = phi i1 [ true, %1 ], [ %9, %7 ]
  ret i1 %11
}

; Function Attrs: mustprogress uwtable
define hidden noundef i32 @_ZNK4ncnn18Dequantize_x86_avx7forwardERKNS_3MatERS1_RKNS_6OptionE(ptr noundef nonnull align 8 dereferenceable(360) %0, ptr noundef nonnull align 8 dereferenceable(72) %1, ptr noundef nonnull align 8 dereferenceable(72) %2, ptr noundef nonnull align 8 dereferenceable(64) %3) unnamed_addr #2 align 2 {
  %5 = alloca i32, align 4
  %6 = alloca ptr, align 8
  %7 = alloca ptr, align 8
  %8 = alloca ptr, align 8
  %9 = alloca ptr, align 8
  %10 = alloca i32, align 4
  %11 = alloca i32, align 4
  %12 = alloca i32, align 4
  %13 = alloca i32, align 4
  %14 = alloca i32, align 4
  %15 = alloca i32, align 4
  %16 = alloca i32, align 4
  %17 = alloca i32, align 4
  %18 = alloca i32, align 4
  %19 = alloca i32, align 4
  %20 = call i32 @__kmpc_global_thread_num(ptr @2)
  store ptr %0, ptr %6, align 8, !tbaa !11
  store ptr %1, ptr %7, align 8, !tbaa !13
  store ptr %2, ptr %8, align 8, !tbaa !13
  store ptr %3, ptr %9, align 8, !tbaa !15
  %21 = load ptr, ptr %6, align 8
  call void @llvm.lifetime.start.p0(i64 4, ptr %10) #6
  %22 = load ptr, ptr %7, align 8, !tbaa !13
  %23 = getelementptr inbounds nuw %"class.ncnn::Mat", ptr %22, i32 0, i32 5
  %24 = load i32, ptr %23, align 8, !tbaa !17
  store i32 %24, ptr %10, align 4, !tbaa !23
  call void @llvm.lifetime.start.p0(i64 4, ptr %11) #6
  %25 = load ptr, ptr %7, align 8, !tbaa !13
  %26 = getelementptr inbounds nuw %"class.ncnn::Mat", ptr %25, i32 0, i32 6
  %27 = load i32, ptr %26, align 4, !tbaa !24
  store i32 %27, ptr %11, align 4, !tbaa !23
  call void @llvm.lifetime.start.p0(i64 4, ptr %12) #6
  %28 = load ptr, ptr %7, align 8, !tbaa !13
  %29 = getelementptr inbounds nuw %"class.ncnn::Mat", ptr %28, i32 0, i32 7
  %30 = load i32, ptr %29, align 8, !tbaa !25
  store i32 %30, ptr %12, align 4, !tbaa !23
  call void @llvm.lifetime.start.p0(i64 4, ptr %13) #6
  %31 = load ptr, ptr %7, align 8, !tbaa !13
  %32 = getelementptr inbounds nuw %"class.ncnn::Mat", ptr %31, i32 0, i32 9
  %33 = load i32, ptr %32, align 8, !tbaa !26
  store i32 %33, ptr %13, align 4, !tbaa !23
  call void @llvm.lifetime.start.p0(i64 4, ptr %14) #6
  %34 = load ptr, ptr %7, align 8, !tbaa !13
  %35 = getelementptr inbounds nuw %"class.ncnn::Mat", ptr %34, i32 0, i32 3
  %36 = load i32, ptr %35, align 8, !tbaa !27
  store i32 %36, ptr %14, align 4, !tbaa !23
  %37 = load ptr, ptr %8, align 8, !tbaa !13
  %38 = load ptr, ptr %7, align 8, !tbaa !13
  %39 = load ptr, ptr %9, align 8, !tbaa !15
  %40 = getelementptr inbounds nuw %"class.ncnn::Option", ptr %39, i32 0, i32 2
  %41 = load ptr, ptr %40, align 8, !tbaa !28
  call void @_ZN4ncnn3Mat11create_likeERKS0_PNS_9AllocatorE(ptr noundef nonnull align 8 dereferenceable(72) %37, ptr noundef nonnull align 8 dereferenceable(72) %38, ptr noundef %41)
  %42 = load ptr, ptr %8, align 8, !tbaa !13
  %43 = call noundef zeroext i1 @_ZNK4ncnn3Mat5emptyEv(ptr noundef nonnull align 8 dereferenceable(72) %42)
  br i1 %43, label %44, label %45

44:                                               ; preds = %4
  store i32 -100, ptr %5, align 4
  store i32 1, ptr %15, align 4
  br label %86

45:                                               ; preds = %4
  %46 = load i32, ptr %10, align 4, !tbaa !23
  %47 = icmp eq i32 %46, 1
  br i1 %47, label %48, label %67

48:                                               ; preds = %45
  call void @llvm.lifetime.start.p0(i64 4, ptr %16) #6
  call void @llvm.lifetime.start.p0(i64 4, ptr %17) #6
  store i32 1, ptr %17, align 4, !tbaa !23
  call void @llvm.lifetime.start.p0(i64 4, ptr %18) #6
  %49 = load i32, ptr %11, align 4, !tbaa !23
  %50 = load ptr, ptr %9, align 8, !tbaa !15
  %51 = getelementptr inbounds nuw %"class.ncnn::Option", ptr %50, i32 0, i32 1
  %52 = load i32, ptr %51, align 4, !tbaa !31
  %53 = sdiv i32 %49, %52
  store i32 %53, ptr %18, align 4, !tbaa !23
  %54 = call noundef nonnull align 4 dereferenceable(4) ptr @_ZSt3maxIiERKT_S2_S2_(ptr noundef nonnull align 4 dereferenceable(4) %17, ptr noundef nonnull align 4 dereferenceable(4) %18)
  %55 = load i32, ptr %54, align 4, !tbaa !23
  call void @llvm.lifetime.end.p0(i64 4, ptr %18) #6
  call void @llvm.lifetime.end.p0(i64 4, ptr %17) #6
  store i32 %55, ptr %16, align 4, !tbaa !23
  call void @llvm.lifetime.start.p0(i64 4, ptr %19) #6
  %56 = load i32, ptr %11, align 4, !tbaa !23
  %57 = load i32, ptr %16, align 4, !tbaa !23
  %58 = add nsw i32 %56, %57
  %59 = sub nsw i32 %58, 1
  %60 = load i32, ptr %16, align 4, !tbaa !23
  %61 = sdiv i32 %59, %60
  store i32 %61, ptr %19, align 4, !tbaa !23
  %62 = load ptr, ptr %9, align 8, !tbaa !15
  %63 = getelementptr inbounds nuw %"class.ncnn::Option", ptr %62, i32 0, i32 1
  %64 = load i32, ptr %63, align 4, !tbaa !31
  call void @__kmpc_push_num_threads(ptr @2, i32 %20, i32 %64)
  %65 = load ptr, ptr %7, align 8, !tbaa !13
  %66 = load ptr, ptr %8, align 8, !tbaa !13
  call void (ptr, i32, ptr, ...) @__kmpc_fork_call(ptr @2, i32 7, ptr @_ZNK4ncnn18Dequantize_x86_avx7forwardERKNS_3MatERS1_RKNS_6OptionE.omp_outlined, ptr %19, ptr %16, ptr %65, ptr %14, ptr %66, ptr %11, ptr %21)
  call void @llvm.lifetime.end.p0(i64 4, ptr %19) #6
  call void @llvm.lifetime.end.p0(i64 4, ptr %16) #6
  br label %67

67:                                               ; preds = %48, %45
  %68 = load i32, ptr %10, align 4, !tbaa !23
  %69 = icmp eq i32 %68, 2
  br i1 %69, label %70, label %76

70:                                               ; preds = %67
  %71 = load ptr, ptr %9, align 8, !tbaa !15
  %72 = getelementptr inbounds nuw %"class.ncnn::Option", ptr %71, i32 0, i32 1
  %73 = load i32, ptr %72, align 4, !tbaa !31
  call void @__kmpc_push_num_threads(ptr @2, i32 %20, i32 %73)
  %74 = load ptr, ptr %7, align 8, !tbaa !13
  %75 = load ptr, ptr %8, align 8, !tbaa !13
  call void (ptr, i32, ptr, ...) @__kmpc_fork_call(ptr @2, i32 6, ptr @_ZNK4ncnn18Dequantize_x86_avx7forwardERKNS_3MatERS1_RKNS_6OptionE.omp_outlined.1, ptr %12, ptr %74, ptr %75, ptr %21, ptr %14, ptr %11)
  br label %76

76:                                               ; preds = %70, %67
  %77 = load i32, ptr %10, align 4, !tbaa !23
  %78 = icmp eq i32 %77, 3
  br i1 %78, label %79, label %85

79:                                               ; preds = %76
  %80 = load ptr, ptr %9, align 8, !tbaa !15
  %81 = getelementptr inbounds nuw %"class.ncnn::Option", ptr %80, i32 0, i32 1
  %82 = load i32, ptr %81, align 4, !tbaa !31
  call void @__kmpc_push_num_threads(ptr @2, i32 %20, i32 %82)
  %83 = load ptr, ptr %7, align 8, !tbaa !13
  %84 = load ptr, ptr %8, align 8, !tbaa !13
  call void (ptr, i32, ptr, ...) @__kmpc_fork_call(ptr @2, i32 7, ptr @_ZNK4ncnn18Dequantize_x86_avx7forwardERKNS_3MatERS1_RKNS_6OptionE.omp_outlined.2, ptr %13, ptr %83, ptr %84, ptr %21, ptr %14, ptr %11, ptr %12)
  br label %85

85:                                               ; preds = %79, %76
  store i32 0, ptr %5, align 4
  store i32 1, ptr %15, align 4
  br label %86

86:                                               ; preds = %85, %44
  call void @llvm.lifetime.end.p0(i64 4, ptr %14) #6
  call void @llvm.lifetime.end.p0(i64 4, ptr %13) #6
  call void @llvm.lifetime.end.p0(i64 4, ptr %12) #6
  call void @llvm.lifetime.end.p0(i64 4, ptr %11) #6
  call void @llvm.lifetime.end.p0(i64 4, ptr %10) #6
  %87 = load i32, ptr %5, align 4
  ret i32 %87
}